; Function Attrs: nounwind uwtable
define ptr @l_Lean_mkSimpleFnCall(ptr noundef %0, ptr noundef %1) local_unnamed_addr #0 {
  %3 = load ptr, ptr @l_Lean_mkSimpleFnCall___closed__1, align 8, !tbaa !4
  %4 = tail call ptr @lean_string_append(ptr noundef %0, ptr noundef %3) #6
  %5 = load ptr, ptr @l_Lean_mkSimpleFnCall___closed__2, align 8, !tbaa !4
  %6 = tail call ptr @l_List_intersperseTR___rarg(ptr noundef %5, ptr noundef %1) #6
  %7 = load ptr, ptr @l_Lean_expandExternPatternAux___closed__1, align 8, !tbaa !4
  %8 = tail call ptr @l_List_foldl___at_String_join___spec__1(ptr noundef %7, ptr noundef %6) #6
  %9 = ptrtoint ptr %6 to i64
  %10 = and i64 %9, 1
  %.not = icmp eq i64 %10, 0
  br i1 %.not, label %11, label %lean_dec.exit13

11:                                               ; preds = %2
  %12 = load i32, ptr %6, align 4, !tbaa !10
  %13 = icmp sgt i32 %12, 1
  br i1 %13, label %14, label %16, !prof !13

14:                                               ; preds = %11
  %15 = add nsw i32 %12, -1
  store i32 %15, ptr %6, align 4, !tbaa !10
  br label %lean_dec.exit13

16:                                               ; preds = %11
  %.not.i = icmp eq i32 %12, 0
  br i1 %.not.i, label %lean_dec.exit13, label %17

17:                                               ; preds = %16
  tail call void @lean_dec_ref_cold(ptr noundef nonnull %6) #6
  br label %lean_dec.exit13

lean_dec.exit13:                                  ; preds = %17, %16, %14, %2
  %18 = tail call ptr @lean_string_append(ptr noundef %4, ptr noundef %8) #6
  %19 = ptrtoint ptr %8 to i64
  %20 = and i64 %19, 1
  %.not16 = icmp eq i64 %20, 0
  br i1 %.not16, label %21, label %lean_dec.exit

21:                                               ; preds = %lean_dec.exit13
  %22 = load i32, ptr %8, align 4, !tbaa !10
  %23 = icmp sgt i32 %22, 1
  br i1 %23, label %24, label %26, !prof !13

24:                                               ; preds = %21
  %25 = add nsw i32 %22, -1
  store i32 %25, ptr %8, align 4, !tbaa !10
  br label %lean_dec.exit

26:                                               ; preds = %21
  %.not.i14 = icmp eq i32 %22, 0
  br i1 %.not.i14, label %lean_dec.exit, label %27

27:                                               ; preds = %26
  tail call void @lean_dec_ref_cold(ptr noundef nonnull %8) #6
  br label %lean_dec.exit

lean_dec.exit:                                    ; preds = %27, %26, %24, %lean_dec.exit13
  %28 = load ptr, ptr @l_Lean_mkSimpleFnCall___closed__3, align 8, !tbaa !4
  %29 = tail call ptr @lean_string_append(ptr noundef %18, ptr noundef %28) #6
  ret ptr %29
}